target datalayout = "e-m:e-p270:32:32-p271:32:32-p272:64:64-i64:64-i128:128-f80:128-n8:16:32:64-S128"
target triple = "x86_64-pc-linux-gnu"

%struct.MpegEncContext = type { ptr, i32, i32, i32, [12 x i32], i32, %struct.ScanTable, %struct.ScanTable, [64 x i8], [64 x i8], ptr, ptr, i32, i32, i32, i32, i32, i32, i32, i32, i32, i32, i32, i32, i32, i32, i32, i32, i32, i32, i32, i32, i64, i64, ptr, %struct.BufferPoolContext, i32, i32, %union.anon, i32, %struct.MPVWorkPicture, %struct.MPVWorkPicture, %struct.MPVWorkPicture, i32, [3 x i32], ptr, [3 x ptr], ptr, ptr, ptr, ptr, ptr, ptr, [3 x ptr], i32, ptr, ptr, ptr, ptr, %struct.ScratchpadContext, i32, i32, i32, i32, i32, i32, %struct.BlockDSPContext, %struct.H264ChromaContext, %struct.HpelDSPContext, %struct.IDCTDSPContext, %struct.QpelDSPContext, %struct.VideoDSPContext, %struct.H263DSPContext, ptr, [2 x [2 x ptr]], i32, i32, [2 x [4 x [2 x i32]]], [2 x [2 x i32]], [2 x [2 x [2 x i32]]], [2 x [64 x i16]], i32, i32, i32, i32, i32, [6 x i32], [6 x i32], [3 x ptr], ptr, [64 x i16], [64 x i16], [64 x i16], [64 x i16], i32, i32, %struct.GetBitContext, i32, i32, i32, i32, i32, i32, i32, i32, i32, i32, i32, i32, i32, i32, i32, i64, i64, i16, i16, i16, i16, i32, i32, i32, i32, i32, i32, i32, i32, i32, [3 x i32], i32, i32, i32, i32, i32, i32, %struct.GetBitContext, i32, [2 x [2 x i32]], i32, i32, i32, i32, i32, i32, i32, i32, i32, i32, i32, i32, i32, i32, [2 x i32], i32, i32, ptr, ptr, ptr, ptr, ptr, i32, i32, %struct.ERContext }
%struct.ScanTable = type { ptr, [64 x i8], [64 x i8] }
%struct.BufferPoolContext = type { ptr, ptr, ptr, ptr, ptr, i32, i32, i32 }
%union.anon = type { [32 x ptr] }
%struct.MPVWorkPicture = type { [3 x ptr], [3 x i64], ptr, ptr, [2 x ptr], ptr, ptr, [2 x ptr], i32 }
%struct.ScratchpadContext = type { ptr, ptr, %union.anon.0, i32 }
%union.anon.0 = type { ptr }
%struct.BlockDSPContext = type { ptr, ptr, [2 x ptr] }
%struct.H264ChromaContext = type { [4 x ptr], [4 x ptr] }
%struct.HpelDSPContext = type { [4 x [4 x ptr]], [4 x [4 x ptr]], [4 x [4 x ptr]], [4 x ptr] }
%struct.IDCTDSPContext = type { ptr, ptr, ptr, ptr, ptr, ptr, [64 x i8], i32, i32 }
%struct.QpelDSPContext = type { [2 x [16 x ptr]], [2 x [16 x ptr]], [2 x [16 x ptr]] }
%struct.VideoDSPContext = type { ptr, ptr }
%struct.H263DSPContext = type { ptr, ptr }
%struct.GetBitContext = type { ptr, ptr, i32, i32, i32 }
%struct.ERContext = type { ptr, ptr, i32, ptr, i32, i32, i32, i64, i64, i32, i32, ptr, ptr, [3 x ptr], ptr, ptr, [2 x [4 x [2 x i32]]], %struct.ERPicture, %struct.ERPicture, %struct.ERPicture, [2 x ptr], [2 x ptr], i16, i16, i32, i32, ptr, ptr }
%struct.ERPicture = type { ptr, ptr, ptr, [2 x ptr], [2 x ptr], ptr, i32 }

; Function Attrs: cold nounwind optsize uwtable
define internal void @clear_context(ptr noundef %0) #5 {
  %2 = alloca ptr, align 8
  %3 = alloca i32, align 4
  %4 = alloca i32, align 4
  %5 = alloca i32, align 4
  store ptr %0, ptr %2, align 8, !tbaa !4
  %6 = load ptr, ptr %2, align 8, !tbaa !4
  %7 = getelementptr inbounds nuw %struct.MpegEncContext, ptr %6, i32 0, i32 35
  call void @llvm.memset.p0.i64(ptr align 8 %7, i8 0, i64 56, i1 false)
  %8 = load ptr, ptr %2, align 8, !tbaa !4
  %9 = getelementptr inbounds nuw %struct.MpegEncContext, ptr %8, i32 0, i32 41
  call void @llvm.memset.p0.i64(ptr align 8 %9, i8 0, i64 120, i1 false)
  %10 = load ptr, ptr %2, align 8, !tbaa !4
  %11 = getelementptr inbounds nuw %struct.MpegEncContext, ptr %10, i32 0, i32 40
  call void @llvm.memset.p0.i64(ptr align 8 %11, i8 0, i64 120, i1 false)
  %12 = load ptr, ptr %2, align 8, !tbaa !4
  %13 = getelementptr inbounds nuw %struct.MpegEncContext, ptr %12, i32 0, i32 42
  call void @llvm.memset.p0.i64(ptr align 8 %13, i8 0, i64 120, i1 false)
  %14 = load ptr, ptr %2, align 8, !tbaa !4
  %15 = getelementptr inbounds nuw %struct.MpegEncContext, ptr %14, i32 0, i32 38
  %16 = getelementptr inbounds [32 x ptr], ptr %15, i64 0, i64 0
  call void @llvm.memset.p0.i64(ptr align 8 %16, i8 0, i64 256, i1 false)
  %17 = load ptr, ptr %2, align 8, !tbaa !4
  %18 = getelementptr inbounds nuw %struct.MpegEncContext, ptr %17, i32 0, i32 154
  store ptr null, ptr %18, align 8, !tbaa !292
  %19 = load ptr, ptr %2, align 8, !tbaa !4
  %20 = getelementptr inbounds nuw %struct.MpegEncContext, ptr %19, i32 0, i32 155
  store ptr null, ptr %20, align 8, !tbaa !315
  %21 = load ptr, ptr %2, align 8, !tbaa !4
  %22 = getelementptr inbounds nuw %struct.MpegEncContext, ptr %21, i32 0, i32 52
  store ptr null, ptr %22, align 8, !tbaa !316
  %23 = load ptr, ptr %2, align 8, !tbaa !4
  %24 = getelementptr inbounds nuw %struct.MpegEncContext, ptr %23, i32 0, i32 53
  %25 = getelementptr inbounds [3 x ptr], ptr %24, i64 0, i64 2
  store ptr null, ptr %25, align 8, !tbaa !68
  %26 = load ptr, ptr %2, align 8, !tbaa !4
  %27 = getelementptr inbounds nuw %struct.MpegEncContext, ptr %26, i32 0, i32 53
  %28 = getelementptr inbounds [3 x ptr], ptr %27, i64 0, i64 1
  store ptr null, ptr %28, align 8, !tbaa !68
  %29 = load ptr, ptr %2, align 8, !tbaa !4
  %30 = getelementptr inbounds nuw %struct.MpegEncContext, ptr %29, i32 0, i32 53
  %31 = getelementptr inbounds [3 x ptr], ptr %30, i64 0, i64 0
  store ptr null, ptr %31, align 8, !tbaa !68
  %32 = load ptr, ptr %2, align 8, !tbaa !4
  %33 = getelementptr inbounds nuw %struct.MpegEncContext, ptr %32, i32 0, i32 59
  call void @llvm.memset.p0.i64(ptr align 8 %33, i8 0, i64 32, i1 false)
  %34 = load ptr, ptr %2, align 8, !tbaa !4
  %35 = getelementptr inbounds nuw %struct.MpegEncContext, ptr %34, i32 0, i32 73
  store ptr null, ptr %35, align 8, !tbaa !317
  call void @llvm.lifetime.start.p0(i64 4, ptr %3) #13
  store i32 0, ptr %3, align 4, !tbaa !47
  br label %36

36:                                               ; preds = %58, %1
  %37 = load i32, ptr %3, align 4, !tbaa !47
  %38 = icmp slt i32 %37, 2
  br i1 %38, label %40, label %39

39:                                               ; preds = %36
  store i32 2, ptr %4, align 4
  call void @llvm.lifetime.end.p0(i64 4, ptr %3) #13
  br label %61

40:                                               ; preds = %36
  call void @llvm.lifetime.start.p0(i64 4, ptr %5) #13
  store i32 0, ptr %5, align 4, !tbaa !47
  br label %41

41:                                               ; preds = %54, %40
  %42 = load i32, ptr %5, align 4, !tbaa !47
  %43 = icmp slt i32 %42, 2
  br i1 %43, label %45, label %44

44:                                               ; preds = %41
  store i32 5, ptr %4, align 4
  call void @llvm.lifetime.end.p0(i64 4, ptr %5) #13
  br label %57

45:                                               ; preds = %41
  %46 = load ptr, ptr %2, align 8, !tbaa !4
  %47 = getelementptr inbounds nuw %struct.MpegEncContext, ptr %46, i32 0, i32 74
  %48 = load i32, ptr %3, align 4, !tbaa !47
  %49 = sext i32 %48 to i64
  %50 = getelementptr inbounds [2 x [2 x ptr]], ptr %47, i64 0, i64 %49
  %51 = load i32, ptr %5, align 4, !tbaa !47
  %52 = sext i32 %51 to i64
  %53 = getelementptr inbounds [2 x ptr], ptr %50, i64 0, i64 %52
  store ptr null, ptr %53, align 8, !tbaa !68
  br label %54

54:                                               ; preds = %45
  %55 = load i32, ptr %5, align 4, !tbaa !47
  %56 = add nsw i32 %55, 1
  store i32 %56, ptr %5, align 4, !tbaa !47
  br label %41, !llvm.loop !318

57:                                               ; preds = %44
  br label %58

58:                                               ; preds = %57
  %59 = load i32, ptr %3, align 4, !tbaa !47
  %60 = add nsw i32 %59, 1
  store i32 %60, ptr %3, align 4, !tbaa !47
  br label %36, !llvm.loop !319

61:                                               ; preds = %39
  %62 = load ptr, ptr %2, align 8, !tbaa !4
  %63 = getelementptr inbounds nuw %struct.MpegEncContext, ptr %62, i32 0, i32 45
  store ptr null, ptr %63, align 8, !tbaa !320
  %64 = load ptr, ptr %2, align 8, !tbaa !4
  %65 = getelementptr inbounds nuw %struct.MpegEncContext, ptr %64, i32 0, i32 50
  store ptr null, ptr %65, align 8, !tbaa !321
  %66 = load ptr, ptr %2, align 8, !tbaa !4
  %67 = getelementptr inbounds nuw %struct.MpegEncContext, ptr %66, i32 0, i32 56
  store ptr null, ptr %67, align 8, !tbaa !148
  %68 = load ptr, ptr %2, align 8, !tbaa !4
  %69 = getelementptr inbounds nuw %struct.MpegEncContext, ptr %68, i32 0, i32 57
  store ptr null, ptr %69, align 8, !tbaa !145
  %70 = load ptr, ptr %2, align 8, !tbaa !4
  %71 = getelementptr inbounds nuw %struct.MpegEncContext, ptr %70, i32 0, i32 58
  store ptr null, ptr %71, align 8, !tbaa !150
  %72 = load ptr, ptr %2, align 8, !tbaa !4
  %73 = getelementptr inbounds nuw %struct.MpegEncContext, ptr %72, i32 0, i32 55
  store ptr null, ptr %73, align 8, !tbaa !322
  %74 = load ptr, ptr %2, align 8, !tbaa !4
  %75 = getelementptr inbounds nuw %struct.MpegEncContext, ptr %74, i32 0, i32 161
  %76 = getelementptr inbounds nuw %struct.ERContext, ptr %75, i32 0, i32 11
  store ptr null, ptr %76, align 8, !tbaa !323
  %77 = load ptr, ptr %2, align 8, !tbaa !4
  %78 = getelementptr inbounds nuw %struct.MpegEncContext, ptr %77, i32 0, i32 161
  %79 = getelementptr inbounds nuw %struct.ERContext, ptr %78, i32 0, i32 12
  store ptr null, ptr %79, align 8, !tbaa !324
  %80 = load ptr, ptr %2, align 8, !tbaa !4
  %81 = getelementptr inbounds nuw %struct.MpegEncContext, ptr %80, i32 0, i32 89
  store ptr null, ptr %81, align 8, !tbaa !325
  %82 = load ptr, ptr %2, align 8, !tbaa !4
  %83 = getelementptr inbounds nuw %struct.MpegEncContext, ptr %82, i32 0, i32 23
  store i32 0, ptr %83, align 4, !tbaa !314
  %84 = load ptr, ptr %2, align 8, !tbaa !4
  %85 = getelementptr inbounds nuw %struct.MpegEncContext, ptr %84, i32 0, i32 159
  store i32 0, ptr %85, align 8, !tbaa !184
  ret void
}

; Function Attrs: cold nounwind optsize uwtable
define internal i32 @update_mpvctx(ptr noundef %0, ptr noundef %1) #5 {
  %3 = alloca i32, align 4
  %4 = alloca ptr, align 8
  %5 = alloca ptr, align 8
  %6 = alloca ptr, align 8
  %7 = alloca i32, align 4
  %8 = alloca i32, align 4
  store ptr %0, ptr %4, align 8, !tbaa !4
  store ptr %1, ptr %5, align 8, !tbaa !4
  call void @llvm.lifetime.start.p0(i64 8, ptr %6) #13
  %9 = load ptr, ptr %4, align 8, !tbaa !4
  %10 = getelementptr inbounds nuw %struct.MpegEncContext, ptr %9, i32 0, i32 10
  %11 = load ptr, ptr %10, align 8, !tbaa !70
  store ptr %11, ptr %6, align 8, !tbaa !159
  %12 = load ptr, ptr %4, align 8, !tbaa !4
  %13 = load ptr, ptr %5, align 8, !tbaa !4
  call void @llvm.memcpy.p0.p0.i64(ptr align 8 %12, ptr align 8 %13, i64 4808, i1 false)
  %14 = load ptr, ptr %4, align 8, !tbaa !4
  call void @clear_context(ptr noundef %14) #16
  %15 = load ptr, ptr %6, align 8, !tbaa !159
  %16 = load ptr, ptr %4, align 8, !tbaa !4
  %17 = getelementptr inbounds nuw %struct.MpegEncContext, ptr %16, i32 0, i32 10
  store ptr %15, ptr %17, align 8, !tbaa !70
  %18 = load ptr, ptr %5, align 8, !tbaa !4
  %19 = getelementptr inbounds nuw %struct.MpegEncContext, ptr %18, i32 0, i32 23
  %20 = load i32, ptr %19, align 4, !tbaa !314
  %21 = icmp ne i32 %20, 0
  br i1 %21, label %22, label %33

22:                                               ; preds = %2
  call void @llvm.lifetime.start.p0(i64 4, ptr %7) #13
  %23 = load ptr, ptr %4, align 8, !tbaa !4
  %24 = call i32 @ff_mpv_common_init(ptr noundef %23)
  store i32 %24, ptr %7, align 4, !tbaa !47
  %25 = load i32, ptr %7, align 4, !tbaa !47
  %26 = icmp slt i32 %25, 0
  br i1 %26, label %27, label %29

27:                                               ; preds = %22
  %28 = load i32, ptr %7, align 4, !tbaa !47
  store i32 %28, ptr %3, align 4
  store i32 1, ptr %8, align 4
  br label %30

29:                                               ; preds = %22
  store i32 0, ptr %8, align 4
  br label %30

30:                                               ; preds = %29, %27
  call void @llvm.lifetime.end.p0(i64 4, ptr %7) #13
  %31 = load i32, ptr %8, align 4
  switch i32 %31, label %34 [
    i32 0, label %32
  ]

32:                                               ; preds = %30
  br label %33

33:                                               ; preds = %32, %2
  store i32 0, ptr %3, align 4
  store i32 1, ptr %8, align 4
  br label %34

34:                                               ; preds = %33, %30
  call void @llvm.lifetime.end.p0(i64 8, ptr %6) #13
  %35 = load i32, ptr %3, align 4
  ret i32 %35
}