; Function Attrs: cold nounwind optsize uwtable
define internal fastcc range(i32 -2147483648, 1) i32 @update_mpvctx(ptr noundef initializes((0, 472), (480, 4808)) %0, ptr noundef readonly captures(none) %1) unnamed_addr #6 {
  %3 = getelementptr inbounds nuw i8, ptr %0, i64 472
  %4 = load ptr, ptr %3, align 8, !tbaa !61
  tail call void @llvm.memcpy.p0.p0.i64(ptr noundef nonnull align 8 dereferenceable(4808) %0, ptr noundef nonnull align 8 dereferenceable(4808) %1, i64 4808, i1 false)
  %5 = getelementptr inbounds nuw i8, ptr %0, i64 592
  tail call void @llvm.memset.p0.i64(ptr noundef nonnull align 8 dereferenceable(56) %5, i8 0, i64 56, i1 false)
  %6 = getelementptr inbounds nuw i8, ptr %0, i64 920
  %7 = getelementptr inbounds nuw i8, ptr %0, i64 656
  tail call void @llvm.memset.p0.i64(ptr noundef nonnull align 8 dereferenceable(256) %7, i8 0, i64 256, i1 false)
  %8 = getelementptr inbounds nuw i8, ptr %0, i64 4288
  %9 = getelementptr inbounds nuw i8, ptr %0, i64 1368
  %10 = getelementptr inbounds nuw i8, ptr %0, i64 2928
  %11 = getelementptr inbounds nuw i8, ptr %0, i64 1296
  store ptr null, ptr %11, align 8, !tbaa !291
  %12 = getelementptr inbounds nuw i8, ptr %0, i64 1352
  store ptr null, ptr %12, align 8, !tbaa !292
  %13 = getelementptr inbounds nuw i8, ptr %0, i64 1408
  %14 = getelementptr inbounds nuw i8, ptr %0, i64 4408
  %15 = getelementptr inbounds nuw i8, ptr %0, i64 3440
  store ptr null, ptr %15, align 8, !tbaa !293
  %16 = getelementptr inbounds nuw i8, ptr %0, i64 532
  store i32 0, ptr %16, align 4, !tbaa !294
  %17 = getelementptr inbounds nuw i8, ptr %0, i64 4328
  store i32 0, ptr %17, align 8, !tbaa !168
  tail call void @llvm.memset.p0.i64(ptr noundef nonnull align 8 dereferenceable(360) %6, i8 0, i64 360, i1 false)
  tail call void @llvm.memset.p0.i64(ptr noundef nonnull align 8 dereferenceable(32) %9, i8 0, i64 32, i1 false)
  tail call void @llvm.memset.p0.i64(ptr noundef nonnull align 8 dereferenceable(64) %13, i8 0, i64 64, i1 false)
  tail call void @llvm.memset.p0.i64(ptr noundef nonnull align 8 dereferenceable(40) %10, i8 0, i64 40, i1 false)
  tail call void @llvm.memset.p0.i64(ptr noundef nonnull align 8 dereferenceable(16) %8, i8 0, i64 16, i1 false)
  tail call void @llvm.memset.p0.i64(ptr noundef nonnull align 8 dereferenceable(16) %14, i8 0, i64 16, i1 false)
  store ptr %4, ptr %3, align 8, !tbaa !61
  %18 = getelementptr inbounds nuw i8, ptr %1, i64 532
  %19 = load i32, ptr %18, align 4, !tbaa !294
  %.not = icmp eq i32 %19, 0
  br i1 %.not, label %23, label %20

20:                                               ; preds = %2
  %21 = tail call i32 @ff_mpv_common_init(ptr noundef nonnull %0) #16
  %22 = icmp sgt i32 %21, -1
  br i1 %22, label %23, label %24

23:                                               ; preds = %20, %2
  br label %24

24:                                               ; preds = %20, %23
  %.1 = phi i32 [ 0, %23 ], [ %21, %20 ]
  ret i32 %.1
}